target datalayout = "e-m:e-p270:32:32-p271:32:32-p272:64:64-i64:64-i128:128-f80:128-n8:16:32:64-S128"
target triple = "x86_64-pc-linux-gnu"

%struct.ForeignDataWrapper = type { i32, i32, ptr, i32, i32, ptr }
%struct.FormData_pg_foreign_data_wrapper = type { i32, %struct.nameData, i32, i32, i32 }
%struct.nameData = type { [64 x i8] }
%struct.HeapTupleData = type { i32, %struct.ItemPointerData, i32, ptr }
%struct.ItemPointerData = type { %struct.BlockIdData, i16 }
%struct.BlockIdData = type { i16, i16 }
%struct.HeapTupleHeaderData = type { %union.anon, %struct.ItemPointerData, i16, i16, i8, [0 x i8] }
%union.anon = type { %struct.HeapTupleFields }
%struct.HeapTupleFields = type { i32, i32, %union.anon.0 }
%union.anon.0 = type { i32 }

@.str = private unnamed_addr constant [48 x i8] c"cache lookup failed for foreign-data wrapper %u\00", align 1
@.str.1 = private unnamed_addr constant [10 x i8] c"foreign.c\00", align 1
@__func__.GetForeignDataWrapperExtended = private unnamed_addr constant [30 x i8] c"GetForeignDataWrapperExtended\00", align 1

; Function Attrs: inlinehint nounwind uwtable
define internal ptr @GETSTRUCT(ptr noundef %0) #3 {
  %2 = alloca ptr, align 8
  store ptr %0, ptr %2, align 8
  %3 = load ptr, ptr %2, align 8
  %4 = getelementptr inbounds nuw %struct.HeapTupleData, ptr %3, i32 0, i32 3
  %5 = load ptr, ptr %4, align 8
  %6 = load ptr, ptr %2, align 8
  %7 = getelementptr inbounds nuw %struct.HeapTupleData, ptr %6, i32 0, i32 3
  %8 = load ptr, ptr %7, align 8
  %9 = getelementptr inbounds nuw %struct.HeapTupleHeaderData, ptr %8, i32 0, i32 4
  %10 = load i8, ptr %9, align 2
  %11 = zext i8 %10 to i32
  %12 = sext i32 %11 to i64
  %13 = getelementptr inbounds i8, ptr %5, i64 %12
  ret ptr %13
}

; Function Attrs: inlinehint nounwind uwtable
define internal i64 @ObjectIdGetDatum(i32 noundef %0) #3 {
  %2 = alloca i32, align 4
  store i32 %0, ptr %2, align 4
  %3 = load i32, ptr %2, align 4
  %4 = zext i32 %3 to i64
  ret i64 %4
}

; Function Attrs: nounwind uwtable
define dso_local ptr @GetForeignDataWrapperExtended(i32 noundef %0, i16 noundef zeroext %1) #0 {
  %3 = alloca ptr, align 8
  %4 = alloca i32, align 4
  %5 = alloca i16, align 2
  %6 = alloca ptr, align 8
  %7 = alloca ptr, align 8
  %8 = alloca i64, align 8
  %9 = alloca ptr, align 8
  %10 = alloca i8, align 1
  %11 = alloca i32, align 4
  store i32 %0, ptr %4, align 4
  store i16 %1, ptr %5, align 2
  call void @llvm.lifetime.start.p0(i64 8, ptr %6) #9
  call void @llvm.lifetime.start.p0(i64 8, ptr %7) #9
  call void @llvm.lifetime.start.p0(i64 8, ptr %8) #9
  call void @llvm.lifetime.start.p0(i64 8, ptr %9) #9
  call void @llvm.lifetime.start.p0(i64 1, ptr %10) #9
  %12 = load i32, ptr %4, align 4
  %13 = call i64 @ObjectIdGetDatum(i32 noundef %12)
  %14 = call ptr @SearchSysCache1(i32 noundef 30, i64 noundef %13)
  store ptr %14, ptr %9, align 8
  %15 = load ptr, ptr %9, align 8
  %16 = icmp ne ptr %15, null
  br i1 %16, label %35, label %17

17:                                               ; preds = %2
  %18 = load i16, ptr %5, align 2
  %19 = zext i16 %18 to i32
  %20 = and i32 %19, 1
  %21 = icmp eq i32 %20, 0
  br i1 %21, label %22, label %34

22:                                               ; preds = %17
  br label %23

23:                                               ; preds = %22
  br i1 true, label %24, label %26

24:                                               ; preds = %23
  %25 = call zeroext i1 @errstart_cold(i32 noundef 21, ptr noundef null) #10
  br i1 %25, label %28, label %31

26:                                               ; preds = %23
  %27 = call zeroext i1 @errstart(i32 noundef 21, ptr noundef null)
  br i1 %27, label %28, label %31

28:                                               ; preds = %26, %24
  %29 = load i32, ptr %4, align 4
  %30 = call i32 (ptr, ...) @errmsg_internal(ptr noundef @.str, i32 noundef %29)
  call void @errfinish(ptr noundef @.str.1, i32 noundef 62, ptr noundef @__func__.GetForeignDataWrapperExtended)
  br label %31

31:                                               ; preds = %28, %26, %24
  unreachable

32:                                               ; No predecessors!
  br label %33

33:                                               ; preds = %32
  br label %34

34:                                               ; preds = %33, %17
  store ptr null, ptr %3, align 8
  store i32 1, ptr %11, align 4
  br label %79

35:                                               ; preds = %2
  %36 = load ptr, ptr %9, align 8
  %37 = call ptr @GETSTRUCT(ptr noundef %36)
  store ptr %37, ptr %6, align 8
  %38 = call ptr @palloc(i64 noundef 32)
  store ptr %38, ptr %7, align 8
  %39 = load i32, ptr %4, align 4
  %40 = load ptr, ptr %7, align 8
  %41 = getelementptr inbounds nuw %struct.ForeignDataWrapper, ptr %40, i32 0, i32 0
  store i32 %39, ptr %41, align 8
  %42 = load ptr, ptr %6, align 8
  %43 = getelementptr inbounds nuw %struct.FormData_pg_foreign_data_wrapper, ptr %42, i32 0, i32 2
  %44 = load i32, ptr %43, align 4
  %45 = load ptr, ptr %7, align 8
  %46 = getelementptr inbounds nuw %struct.ForeignDataWrapper, ptr %45, i32 0, i32 1
  store i32 %44, ptr %46, align 4
  %47 = load ptr, ptr %6, align 8
  %48 = getelementptr inbounds nuw %struct.FormData_pg_foreign_data_wrapper, ptr %47, i32 0, i32 1
  %49 = getelementptr inbounds nuw %struct.nameData, ptr %48, i32 0, i32 0
  %50 = getelementptr inbounds [64 x i8], ptr %49, i64 0, i64 0
  %51 = call ptr @pstrdup(ptr noundef %50)
  %52 = load ptr, ptr %7, align 8
  %53 = getelementptr inbounds nuw %struct.ForeignDataWrapper, ptr %52, i32 0, i32 2
  store ptr %51, ptr %53, align 8
  %54 = load ptr, ptr %6, align 8
  %55 = getelementptr inbounds nuw %struct.FormData_pg_foreign_data_wrapper, ptr %54, i32 0, i32 3
  %56 = load i32, ptr %55, align 4
  %57 = load ptr, ptr %7, align 8
  %58 = getelementptr inbounds nuw %struct.ForeignDataWrapper, ptr %57, i32 0, i32 3
  store i32 %56, ptr %58, align 8
  %59 = load ptr, ptr %6, align 8
  %60 = getelementptr inbounds nuw %struct.FormData_pg_foreign_data_wrapper, ptr %59, i32 0, i32 4
  %61 = load i32, ptr %60, align 4
  %62 = load ptr, ptr %7, align 8
  %63 = getelementptr inbounds nuw %struct.ForeignDataWrapper, ptr %62, i32 0, i32 4
  store i32 %61, ptr %63, align 4
  %64 = load ptr, ptr %9, align 8
  %65 = call i64 @SysCacheGetAttr(i32 noundef 30, ptr noundef %64, i16 noundef signext 7, ptr noundef %10)
  store i64 %65, ptr %8, align 8
  %66 = load i8, ptr %10, align 1, !range !4, !noundef !5
  %67 = trunc i8 %66 to i1
  br i1 %67, label %68, label %71

68:                                               ; preds = %35
  %69 = load ptr, ptr %7, align 8
  %70 = getelementptr inbounds nuw %struct.ForeignDataWrapper, ptr %69, i32 0, i32 5
  store ptr null, ptr %70, align 8
  br label %76

71:                                               ; preds = %35
  %72 = load i64, ptr %8, align 8
  %73 = call ptr @untransformRelOptions(i64 noundef %72)
  %74 = load ptr, ptr %7, align 8
  %75 = getelementptr inbounds nuw %struct.ForeignDataWrapper, ptr %74, i32 0, i32 5
  store ptr %73, ptr %75, align 8
  br label %76

76:                                               ; preds = %71, %68
  %77 = load ptr, ptr %9, align 8
  call void @ReleaseSysCache(ptr noundef %77)
  %78 = load ptr, ptr %7, align 8
  store ptr %78, ptr %3, align 8
  store i32 1, ptr %11, align 4
  br label %79

79:                                               ; preds = %76, %34
  call void @llvm.lifetime.end.p0(i64 1, ptr %10) #9
  call void @llvm.lifetime.end.p0(i64 8, ptr %9) #9
  call void @llvm.lifetime.end.p0(i64 8, ptr %8) #9
  call void @llvm.lifetime.end.p0(i64 8, ptr %7) #9
  call void @llvm.lifetime.end.p0(i64 8, ptr %6) #9
  %80 = load ptr, ptr %3, align 8
  ret ptr %80
}