; Function Attrs: nounwind uwtable
define dso_local noundef ptr @GetForeignDataWrapperExtended(i32 noundef %0, i16 noundef zeroext %1) local_unnamed_addr #0 {
  %3 = alloca i8, align 1
  call void @llvm.lifetime.start.p0(i64 1, ptr nonnull %3) #8
  %4 = zext i32 %0 to i64
  %5 = tail call ptr @SearchSysCache1(i32 noundef 30, i64 noundef %4) #8
  %.not = icmp eq ptr %5, null
  br i1 %.not, label %6, label %12

6:                                                ; preds = %2
  %7 = and i16 %1, 1
  %8 = icmp eq i16 %7, 0
  br i1 %8, label %9, label %38

9:                                                ; preds = %6
  %10 = tail call zeroext i1 @errstart_cold(i32 noundef 21, ptr noundef null) #9
  tail call void @llvm.assume(i1 %10)
  %11 = tail call i32 (ptr, ...) @errmsg_internal(ptr noundef nonnull @.str, i32 noundef %0) #8
  tail call void @errfinish(ptr noundef nonnull @.str.1, i32 noundef 62, ptr noundef nonnull @__func__.GetForeignDataWrapperExtended) #8
  unreachable

12:                                               ; preds = %2
  %13 = getelementptr i8, ptr %5, i64 16
  %.val = load ptr, ptr %13, align 8
  %14 = getelementptr inbounds nuw i8, ptr %.val, i64 22
  %15 = load i8, ptr %14, align 2
  %16 = zext i8 %15 to i64
  %17 = getelementptr inbounds nuw i8, ptr %.val, i64 %16
  %18 = tail call ptr @palloc(i64 noundef 32) #8
  store i32 %0, ptr %18, align 8
  %19 = getelementptr inbounds nuw i8, ptr %17, i64 68
  %20 = load i32, ptr %19, align 4
  %21 = getelementptr inbounds nuw i8, ptr %18, i64 4
  store i32 %20, ptr %21, align 4
  %22 = getelementptr inbounds nuw i8, ptr %17, i64 4
  %23 = tail call ptr @pstrdup(ptr noundef nonnull %22) #8
  %24 = getelementptr inbounds nuw i8, ptr %18, i64 8
  store ptr %23, ptr %24, align 8
  %25 = getelementptr inbounds nuw i8, ptr %17, i64 72
  %26 = load i32, ptr %25, align 4
  %27 = getelementptr inbounds nuw i8, ptr %18, i64 16
  store i32 %26, ptr %27, align 8
  %28 = getelementptr inbounds nuw i8, ptr %17, i64 76
  %29 = load i32, ptr %28, align 4
  %30 = getelementptr inbounds nuw i8, ptr %18, i64 20
  store i32 %29, ptr %30, align 4
  %31 = call i64 @SysCacheGetAttr(i32 noundef 30, ptr noundef nonnull %5, i16 noundef signext 7, ptr noundef nonnull %3) #8
  %32 = load i8, ptr %3, align 1, !range !4, !noundef !5
  %33 = trunc nuw i8 %32 to i1
  br i1 %33, label %36, label %34

34:                                               ; preds = %12
  %35 = call ptr @untransformRelOptions(i64 noundef %31) #8
  br label %36

36:                                               ; preds = %12, %34
  %.sink = phi ptr [ %35, %34 ], [ null, %12 ]
  %37 = getelementptr inbounds nuw i8, ptr %18, i64 24
  store ptr %.sink, ptr %37, align 8
  call void @ReleaseSysCache(ptr noundef nonnull %5) #8
  br label %38

38:                                               ; preds = %6, %36
  %.0 = phi ptr [ %18, %36 ], [ null, %6 ]
  call void @llvm.lifetime.end.p0(i64 1, ptr nonnull %3) #8
  ret ptr %.0
}